target datalayout = "e-m:e-p270:32:32-p271:32:32-p272:64:64-i64:64-i128:128-f80:128-n8:16:32:64-S128"
target triple = "x86_64-pc-linux-gnu"

%struct.Int128_ = type { i64, i64 }

; Function Attrs: nounwind uwtable
define internal i32 @clz64(i64 noundef %0) #0 {
  %2 = alloca i64, align 8
  %3 = alloca i64, align 8
  %4 = alloca i32, align 4
  store i64 %0, ptr %2, align 8
  %5 = load i64, ptr %2, align 8
  %6 = xor i64 %5, -1
  store i64 %6, ptr %3, align 8
  %7 = load i64, ptr %3, align 8
  %8 = load i64, ptr %3, align 8
  %9 = add i64 %8, 1
  %10 = xor i64 %7, %9
  %11 = load i64, ptr %3, align 8
  %12 = and i64 %10, %11
  %13 = lshr i64 %12, 63
  %14 = trunc i64 %13 to i32
  store i32 %14, ptr %4, align 4
  %15 = load i64, ptr %2, align 8
  %16 = lshr i64 %15, 32
  %17 = add i64 %16, 4294967295
  store i64 %17, ptr %3, align 8
  %18 = load i64, ptr %3, align 8
  %19 = and i64 %18, 4294967296
  %20 = xor i64 %19, 4294967296
  %21 = lshr i64 %20, 27
  store i64 %21, ptr %3, align 8
  %22 = load i64, ptr %3, align 8
  %23 = load i32, ptr %4, align 4
  %24 = zext i32 %23 to i64
  %25 = add i64 %24, %22
  %26 = trunc i64 %25 to i32
  store i32 %26, ptr %4, align 4
  %27 = load i64, ptr %3, align 8
  %28 = load i64, ptr %2, align 8
  %29 = shl i64 %28, %27
  store i64 %29, ptr %2, align 8
  %30 = load i64, ptr %2, align 8
  %31 = lshr i64 %30, 48
  %32 = add i64 %31, 65535
  store i64 %32, ptr %3, align 8
  %33 = load i64, ptr %3, align 8
  %34 = and i64 %33, 65536
  %35 = xor i64 %34, 65536
  %36 = lshr i64 %35, 12
  store i64 %36, ptr %3, align 8
  %37 = load i64, ptr %3, align 8
  %38 = load i32, ptr %4, align 4
  %39 = zext i32 %38 to i64
  %40 = add i64 %39, %37
  %41 = trunc i64 %40 to i32
  store i32 %41, ptr %4, align 4
  %42 = load i64, ptr %3, align 8
  %43 = load i64, ptr %2, align 8
  %44 = shl i64 %43, %42
  store i64 %44, ptr %2, align 8
  %45 = load i64, ptr %2, align 8
  %46 = lshr i64 %45, 56
  %47 = add i64 %46, 255
  store i64 %47, ptr %3, align 8
  %48 = load i64, ptr %3, align 8
  %49 = and i64 %48, 256
  %50 = xor i64 %49, 256
  %51 = lshr i64 %50, 5
  store i64 %51, ptr %3, align 8
  %52 = load i64, ptr %3, align 8
  %53 = load i32, ptr %4, align 4
  %54 = zext i32 %53 to i64
  %55 = add i64 %54, %52
  %56 = trunc i64 %55 to i32
  store i32 %56, ptr %4, align 4
  %57 = load i64, ptr %3, align 8
  %58 = load i64, ptr %2, align 8
  %59 = shl i64 %58, %57
  store i64 %59, ptr %2, align 8
  %60 = load i64, ptr %2, align 8
  %61 = lshr i64 %60, 60
  %62 = add i64 %61, 15
  store i64 %62, ptr %3, align 8
  %63 = load i64, ptr %3, align 8
  %64 = and i64 %63, 16
  %65 = xor i64 %64, 16
  %66 = lshr i64 %65, 2
  store i64 %66, ptr %3, align 8
  %67 = load i64, ptr %3, align 8
  %68 = load i32, ptr %4, align 4
  %69 = zext i32 %68 to i64
  %70 = add i64 %69, %67
  %71 = trunc i64 %70 to i32
  store i32 %71, ptr %4, align 4
  %72 = load i64, ptr %3, align 8
  %73 = load i64, ptr %2, align 8
  %74 = shl i64 %73, %72
  store i64 %74, ptr %2, align 8
  %75 = load i64, ptr %2, align 8
  %76 = lshr i64 %75, 62
  %77 = add i64 %76, 3
  store i64 %77, ptr %3, align 8
  %78 = load i64, ptr %3, align 8
  %79 = and i64 %78, 4
  %80 = xor i64 %79, 4
  %81 = lshr i64 %80, 1
  store i64 %81, ptr %3, align 8
  %82 = load i64, ptr %3, align 8
  %83 = load i32, ptr %4, align 4
  %84 = zext i32 %83 to i64
  %85 = add i64 %84, %82
  %86 = trunc i64 %85 to i32
  store i32 %86, ptr %4, align 4
  %87 = load i64, ptr %3, align 8
  %88 = load i64, ptr %2, align 8
  %89 = shl i64 %88, %87
  store i64 %89, ptr %2, align 8
  %90 = load i64, ptr %2, align 8
  %91 = lshr i64 %90, 63
  %92 = xor i64 %91, 1
  %93 = load i32, ptr %4, align 4
  %94 = zext i32 %93 to i64
  %95 = add i64 %94, %92
  %96 = trunc i64 %95 to i32
  store i32 %96, ptr %4, align 4
  %97 = load i32, ptr %4, align 4
  ret i32 %97
}

; Function Attrs: nounwind uwtable
define dso_local i32 @i128_clz(ptr noundef %0) #0 {
  %2 = alloca ptr, align 8
  store ptr %0, ptr %2, align 8
  %3 = load ptr, ptr %2, align 8
  %4 = getelementptr inbounds %struct.Int128_, ptr %3, i32 0, i32 0
  %5 = load i64, ptr %4, align 8
  %6 = icmp ne i64 %5, 0
  br i1 %6, label %7, label %12

7:                                                ; preds = %1
  %8 = load ptr, ptr %2, align 8
  %9 = getelementptr inbounds %struct.Int128_, ptr %8, i32 0, i32 0
  %10 = load i64, ptr %9, align 8
  %11 = call i32 @clz64(i64 noundef %10)
  br label %18

12:                                               ; preds = %1
  %13 = load ptr, ptr %2, align 8
  %14 = getelementptr inbounds %struct.Int128_, ptr %13, i32 0, i32 1
  %15 = load i64, ptr %14, align 8
  %16 = call i32 @clz64(i64 noundef %15)
  %17 = add i32 %16, 64
  br label %18

18:                                               ; preds = %12, %7
  %19 = phi i32 [ %11, %7 ], [ %17, %12 ]
  ret i32 %19
}