; Function Attrs: mustprogress nofree norecurse nosync nounwind willreturn memory(argmem: read) uwtable
define dso_local range(i32 0, 129) i32 @i128_clz(ptr noundef readonly captures(none) %0) local_unnamed_addr #8 {
  %2 = load i64, ptr %0, align 8
  %.not = icmp eq i64 %2, 0
  br i1 %.not, label %41, label %3

3:                                                ; preds = %1
  %4 = lshr i64 %2, 32
  %5 = add nuw nsw i64 %4, 4294967295
  %6 = lshr i64 %5, 27
  %7 = and i64 %6, 32
  %8 = xor i64 %7, 32
  %9 = shl i64 %2, %8
  %10 = lshr i64 %9, 48
  %11 = add nuw nsw i64 %10, 65535
  %12 = lshr i64 %11, 12
  %13 = and i64 %12, 16
  %14 = xor i64 %13, 16
  %15 = shl i64 %9, %14
  %16 = lshr i64 %15, 56
  %17 = add nuw nsw i64 %16, 255
  %18 = lshr i64 %17, 5
  %19 = and i64 %18, 8
  %20 = xor i64 %19, 8
  %21 = shl i64 %15, %20
  %22 = lshr i64 %21, 60
  %23 = add nuw nsw i64 %22, 15
  %24 = lshr i64 %23, 2
  %25 = and i64 %24, 4
  %26 = xor i64 %25, 4
  %27 = shl i64 %21, %26
  %28 = lshr i64 %27, 62
  %29 = add nuw nsw i64 %28, 3
  %30 = lshr i64 %29, 1
  %31 = and i64 %30, 2
  %32 = xor i64 %31, 2
  %33 = shl i64 %27, %32
  %isnotneg.i = icmp sgt i64 %33, -1
  %34 = zext i1 %isnotneg.i to i64
  %35 = or disjoint i64 %8, %34
  %36 = or disjoint i64 %35, %14
  %37 = or disjoint i64 %36, %20
  %38 = or disjoint i64 %37, %26
  %39 = or i64 %38, %32
  %40 = trunc nuw nsw i64 %39 to i32
  br label %85

41:                                               ; preds = %1
  %42 = getelementptr inbounds nuw i8, ptr %0, i64 8
  %43 = load i64, ptr %42, align 8
  %44 = icmp eq i64 %43, 0
  %45 = lshr i64 %43, 32
  %46 = add nuw nsw i64 %45, 4294967295
  %47 = lshr i64 %46, 27
  %48 = and i64 %47, 32
  %49 = xor i64 %48, 32
  %50 = zext i1 %44 to i64
  %51 = or disjoint i64 %49, %50
  %52 = shl i64 %43, %49
  %53 = lshr i64 %52, 48
  %54 = add nuw nsw i64 %53, 65535
  %55 = lshr i64 %54, 12
  %56 = and i64 %55, 16
  %57 = xor i64 %56, 16
  %58 = or disjoint i64 %51, %57
  %59 = shl i64 %52, %57
  %60 = lshr i64 %59, 56
  %61 = add nuw nsw i64 %60, 255
  %62 = lshr i64 %61, 5
  %63 = and i64 %62, 8
  %64 = xor i64 %63, 8
  %65 = or disjoint i64 %58, %64
  %66 = shl i64 %59, %64
  %67 = lshr i64 %66, 60
  %68 = add nuw nsw i64 %67, 15
  %69 = lshr i64 %68, 2
  %70 = and i64 %69, 4
  %71 = xor i64 %70, 4
  %72 = or disjoint i64 %65, %71
  %73 = shl i64 %66, %71
  %74 = lshr i64 %73, 62
  %75 = add nuw nsw i64 %74, 3
  %76 = lshr i64 %75, 1
  %77 = and i64 %76, 2
  %78 = xor i64 %77, 2
  %79 = shl i64 %73, %78
  %isnotneg.i3 = icmp sgt i64 %79, -1
  %80 = zext i1 %isnotneg.i3 to i64
  %81 = or disjoint i64 %72, %78
  %82 = add nuw nsw i64 %81, %80
  %83 = trunc nuw nsw i64 %82 to i32
  %84 = add nuw nsw i32 %83, 64
  br label %85

85:                                               ; preds = %41, %3
  %86 = phi i32 [ %40, %3 ], [ %84, %41 ]
  ret i32 %86
}